ARM GAS  C:\Users\SANDEE~1\AppData\Local\Temp\ccxpgTaX.s 			page 1


   1              		.syntax unified
   2              		.cpu cortex-m3
   3              		.fpu softvfp
   4              		.eabi_attribute 20, 1
   5              		.eabi_attribute 21, 1
   6              		.eabi_attribute 23, 3
   7              		.eabi_attribute 24, 1
   8              		.eabi_attribute 25, 1
   9              		.eabi_attribute 26, 1
  10              		.eabi_attribute 30, 1
  11              		.eabi_attribute 34, 1
  12              		.eabi_attribute 18, 4
  13              		.thumb
  14              		.syntax unified
  15              		.file	"main.c"
  16              		.text
  17              	.Ltext0:
  18              		.cfi_sections	.debug_frame
  19              		.section	.text.initializeAllComponenets,"ax",%progbits
  20              		.align	2
  21              		.global	initializeAllComponenets
  22              		.thumb
  23              		.thumb_func
  24              		.type	initializeAllComponenets, %function
  25              	initializeAllComponenets:
  26              	.LFB63:
  27              		.file 1 "main.c"
   1:main.c        **** /* ========================================
   2:main.c        ****  *
   3:main.c        ****  * Copyright YOUR COMPANY, THE YEAR
   4:main.c        ****  * All Rights Reserved
   5:main.c        ****  * UNPUBLISHED, LICENSED SOFTWARE.
   6:main.c        ****  *
   7:main.c        ****  * CONFIDENTIAL AND PROPRIETARY INFORMATION
   8:main.c        ****  * WHICH IS THE PROPERTY OF your company.
   9:main.c        ****  *
  10:main.c        ****  * ========================================
  11:main.c        **** */
  12:main.c        **** #include "project.h"
  13:main.c        **** 
  14:main.c        **** 
  15:main.c        **** void initializeAllComponenets() {
  28              		.loc 1 15 0
  29              		.cfi_startproc
  30              		@ args = 0, pretend = 0, frame = 0
  31              		@ frame_needed = 0, uses_anonymous_args = 0
  32 0000 08B5     		push	{r3, lr}
  33              		.cfi_def_cfa_offset 8
  34              		.cfi_offset 3, -8
  35              		.cfi_offset 14, -4
  16:main.c        ****     RightEyebrow_Start();
  36              		.loc 1 16 0
  37 0002 FFF7FEFF 		bl	RightEyebrow_Start
  38              	.LVL0:
  17:main.c        ****     LeftEyebrow_Start();
  39              		.loc 1 17 0
  40 0006 FFF7FEFF 		bl	LeftEyebrow_Start
ARM GAS  C:\Users\SANDEE~1\AppData\Local\Temp\ccxpgTaX.s 			page 2


  41              	.LVL1:
  18:main.c        ****     EyeBallVertical_Start();
  42              		.loc 1 18 0
  43 000a FFF7FEFF 		bl	EyeBallVertical_Start
  44              	.LVL2:
  19:main.c        ****     EyelidGroup_Start();
  45              		.loc 1 19 0
  46 000e FFF7FEFF 		bl	EyelidGroup_Start
  47              	.LVL3:
  20:main.c        ****     BaseJaw_Start();
  48              		.loc 1 20 0
  49 0012 FFF7FEFF 		bl	BaseJaw_Start
  50              	.LVL4:
  21:main.c        ****     LeftEyebrow_Start();
  51              		.loc 1 21 0
  52 0016 FFF7FEFF 		bl	LeftEyebrow_Start
  53              	.LVL5:
  22:main.c        ****     EyeBallHorizontal_Start();
  54              		.loc 1 22 0
  55 001a FFF7FEFF 		bl	EyeBallHorizontal_Start
  56              	.LVL6:
  23:main.c        ****     Neck_Start();
  57              		.loc 1 23 0
  58 001e FFF7FEFF 		bl	Neck_Start
  59              	.LVL7:
  24:main.c        ****     Lip_Start();
  60              		.loc 1 24 0
  61 0022 FFF7FEFF 		bl	Lip_Start
  62              	.LVL8:
  63 0026 08BD     		pop	{r3, pc}
  64              		.cfi_endproc
  65              	.LFE63:
  66              		.size	initializeAllComponenets, .-initializeAllComponenets
  67              		.section	.text.resetLeftEyebrow,"ax",%progbits
  68              		.align	2
  69              		.global	resetLeftEyebrow
  70              		.thumb
  71              		.thumb_func
  72              		.type	resetLeftEyebrow, %function
  73              	resetLeftEyebrow:
  74              	.LFB64:
  25:main.c        **** }
  26:main.c        **** 
  27:main.c        **** void resetLeftEyebrow() {
  75              		.loc 1 27 0
  76              		.cfi_startproc
  77              		@ args = 0, pretend = 0, frame = 0
  78              		@ frame_needed = 0, uses_anonymous_args = 0
  79 0000 08B5     		push	{r3, lr}
  80              		.cfi_def_cfa_offset 8
  81              		.cfi_offset 3, -8
  82              		.cfi_offset 14, -4
  28:main.c        ****     LeftEyebrow_WriteCompare1(1000);
  83              		.loc 1 28 0
  84 0002 4FF47A70 		mov	r0, #1000
  85 0006 FFF7FEFF 		bl	LeftEyebrow_WriteCompare1
  86              	.LVL9:
ARM GAS  C:\Users\SANDEE~1\AppData\Local\Temp\ccxpgTaX.s 			page 3


  29:main.c        ****     LeftEyebrow_WriteCompare2(1000);
  87              		.loc 1 29 0
  88 000a 4FF47A70 		mov	r0, #1000
  89 000e FFF7FEFF 		bl	LeftEyebrow_WriteCompare2
  90              	.LVL10:
  91 0012 08BD     		pop	{r3, pc}
  92              		.cfi_endproc
  93              	.LFE64:
  94              		.size	resetLeftEyebrow, .-resetLeftEyebrow
  95              		.section	.text.sadLeftEyebrow,"ax",%progbits
  96              		.align	2
  97              		.global	sadLeftEyebrow
  98              		.thumb
  99              		.thumb_func
 100              		.type	sadLeftEyebrow, %function
 101              	sadLeftEyebrow:
 102              	.LFB65:
  30:main.c        **** }
  31:main.c        **** 
  32:main.c        **** void sadLeftEyebrow() {
 103              		.loc 1 32 0
 104              		.cfi_startproc
 105              		@ args = 0, pretend = 0, frame = 0
 106              		@ frame_needed = 0, uses_anonymous_args = 0
 107 0000 08B5     		push	{r3, lr}
 108              		.cfi_def_cfa_offset 8
 109              		.cfi_offset 3, -8
 110              		.cfi_offset 14, -4
  33:main.c        ****     LeftEyebrow_WriteCompare1(1600);
 111              		.loc 1 33 0
 112 0002 4FF4C860 		mov	r0, #1600
 113 0006 FFF7FEFF 		bl	LeftEyebrow_WriteCompare1
 114              	.LVL11:
  34:main.c        ****     LeftEyebrow_WriteCompare2(1600);
 115              		.loc 1 34 0
 116 000a 4FF4C860 		mov	r0, #1600
 117 000e FFF7FEFF 		bl	LeftEyebrow_WriteCompare2
 118              	.LVL12:
 119 0012 08BD     		pop	{r3, pc}
 120              		.cfi_endproc
 121              	.LFE65:
 122              		.size	sadLeftEyebrow, .-sadLeftEyebrow
 123              		.section	.text.raisedLeftEyebrow,"ax",%progbits
 124              		.align	2
 125              		.global	raisedLeftEyebrow
 126              		.thumb
 127              		.thumb_func
 128              		.type	raisedLeftEyebrow, %function
 129              	raisedLeftEyebrow:
 130              	.LFB66:
  35:main.c        **** }
  36:main.c        **** 
  37:main.c        **** void raisedLeftEyebrow() {
 131              		.loc 1 37 0
 132              		.cfi_startproc
 133              		@ args = 0, pretend = 0, frame = 0
 134              		@ frame_needed = 0, uses_anonymous_args = 0
ARM GAS  C:\Users\SANDEE~1\AppData\Local\Temp\ccxpgTaX.s 			page 4


 135 0000 08B5     		push	{r3, lr}
 136              		.cfi_def_cfa_offset 8
 137              		.cfi_offset 3, -8
 138              		.cfi_offset 14, -4
  38:main.c        ****     LeftEyebrow_WriteCompare1(200);
 139              		.loc 1 38 0
 140 0002 C820     		movs	r0, #200
 141 0004 FFF7FEFF 		bl	LeftEyebrow_WriteCompare1
 142              	.LVL13:
  39:main.c        ****     LeftEyebrow_WriteCompare2(200);
 143              		.loc 1 39 0
 144 0008 C820     		movs	r0, #200
 145 000a FFF7FEFF 		bl	LeftEyebrow_WriteCompare2
 146              	.LVL14:
 147 000e 08BD     		pop	{r3, pc}
 148              		.cfi_endproc
 149              	.LFE66:
 150              		.size	raisedLeftEyebrow, .-raisedLeftEyebrow
 151              		.section	.text.clearLeftEyebrow,"ax",%progbits
 152              		.align	2
 153              		.global	clearLeftEyebrow
 154              		.thumb
 155              		.thumb_func
 156              		.type	clearLeftEyebrow, %function
 157              	clearLeftEyebrow:
 158              	.LFB67:
  40:main.c        **** }
  41:main.c        **** 
  42:main.c        **** void clearLeftEyebrow() {
 159              		.loc 1 42 0
 160              		.cfi_startproc
 161              		@ args = 0, pretend = 0, frame = 0
 162              		@ frame_needed = 0, uses_anonymous_args = 0
 163 0000 08B5     		push	{r3, lr}
 164              		.cfi_def_cfa_offset 8
 165              		.cfi_offset 3, -8
 166              		.cfi_offset 14, -4
  43:main.c        ****     LeftEyebrow_WriteCompare1(0);
 167              		.loc 1 43 0
 168 0002 0020     		movs	r0, #0
 169 0004 FFF7FEFF 		bl	LeftEyebrow_WriteCompare1
 170              	.LVL15:
  44:main.c        ****     LeftEyebrow_WriteCompare2(0);
 171              		.loc 1 44 0
 172 0008 0020     		movs	r0, #0
 173 000a FFF7FEFF 		bl	LeftEyebrow_WriteCompare2
 174              	.LVL16:
 175 000e 08BD     		pop	{r3, pc}
 176              		.cfi_endproc
 177              	.LFE67:
 178              		.size	clearLeftEyebrow, .-clearLeftEyebrow
 179              		.section	.text.resetRightEyebrow,"ax",%progbits
 180              		.align	2
 181              		.global	resetRightEyebrow
 182              		.thumb
 183              		.thumb_func
 184              		.type	resetRightEyebrow, %function
ARM GAS  C:\Users\SANDEE~1\AppData\Local\Temp\ccxpgTaX.s 			page 5


 185              	resetRightEyebrow:
 186              	.LFB68:
  45:main.c        **** }
  46:main.c        **** 
  47:main.c        **** void resetRightEyebrow() {
 187              		.loc 1 47 0
 188              		.cfi_startproc
 189              		@ args = 0, pretend = 0, frame = 0
 190              		@ frame_needed = 0, uses_anonymous_args = 0
 191 0000 08B5     		push	{r3, lr}
 192              		.cfi_def_cfa_offset 8
 193              		.cfi_offset 3, -8
 194              		.cfi_offset 14, -4
  48:main.c        ****     RightEyebrow_WriteCompare1(1000);
 195              		.loc 1 48 0
 196 0002 4FF47A70 		mov	r0, #1000
 197 0006 FFF7FEFF 		bl	RightEyebrow_WriteCompare1
 198              	.LVL17:
  49:main.c        ****     RightEyebrow_WriteCompare2(1000);
 199              		.loc 1 49 0
 200 000a 4FF47A70 		mov	r0, #1000
 201 000e FFF7FEFF 		bl	RightEyebrow_WriteCompare2
 202              	.LVL18:
 203 0012 08BD     		pop	{r3, pc}
 204              		.cfi_endproc
 205              	.LFE68:
 206              		.size	resetRightEyebrow, .-resetRightEyebrow
 207              		.section	.text.raisedRightEyebrow,"ax",%progbits
 208              		.align	2
 209              		.global	raisedRightEyebrow
 210              		.thumb
 211              		.thumb_func
 212              		.type	raisedRightEyebrow, %function
 213              	raisedRightEyebrow:
 214              	.LFB69:
  50:main.c        **** }
  51:main.c        **** 
  52:main.c        **** void raisedRightEyebrow() {
 215              		.loc 1 52 0
 216              		.cfi_startproc
 217              		@ args = 0, pretend = 0, frame = 0
 218              		@ frame_needed = 0, uses_anonymous_args = 0
 219 0000 08B5     		push	{r3, lr}
 220              		.cfi_def_cfa_offset 8
 221              		.cfi_offset 3, -8
 222              		.cfi_offset 14, -4
  53:main.c        ****     RightEyebrow_WriteCompare1(1600);
 223              		.loc 1 53 0
 224 0002 4FF4C860 		mov	r0, #1600
 225 0006 FFF7FEFF 		bl	RightEyebrow_WriteCompare1
 226              	.LVL19:
  54:main.c        ****     RightEyebrow_WriteCompare2(1600);
 227              		.loc 1 54 0
 228 000a 4FF4C860 		mov	r0, #1600
 229 000e FFF7FEFF 		bl	RightEyebrow_WriteCompare2
 230              	.LVL20:
 231 0012 08BD     		pop	{r3, pc}
ARM GAS  C:\Users\SANDEE~1\AppData\Local\Temp\ccxpgTaX.s 			page 6


 232              		.cfi_endproc
 233              	.LFE69:
 234              		.size	raisedRightEyebrow, .-raisedRightEyebrow
 235              		.section	.text.sadRightEyebrow,"ax",%progbits
 236              		.align	2
 237              		.global	sadRightEyebrow
 238              		.thumb
 239              		.thumb_func
 240              		.type	sadRightEyebrow, %function
 241              	sadRightEyebrow:
 242              	.LFB70:
  55:main.c        **** }
  56:main.c        **** 
  57:main.c        **** void sadRightEyebrow() {
 243              		.loc 1 57 0
 244              		.cfi_startproc
 245              		@ args = 0, pretend = 0, frame = 0
 246              		@ frame_needed = 0, uses_anonymous_args = 0
 247 0000 08B5     		push	{r3, lr}
 248              		.cfi_def_cfa_offset 8
 249              		.cfi_offset 3, -8
 250              		.cfi_offset 14, -4
  58:main.c        ****     RightEyebrow_WriteCompare1(200);
 251              		.loc 1 58 0
 252 0002 C820     		movs	r0, #200
 253 0004 FFF7FEFF 		bl	RightEyebrow_WriteCompare1
 254              	.LVL21:
  59:main.c        ****     RightEyebrow_WriteCompare2(200);
 255              		.loc 1 59 0
 256 0008 C820     		movs	r0, #200
 257 000a FFF7FEFF 		bl	RightEyebrow_WriteCompare2
 258              	.LVL22:
 259 000e 08BD     		pop	{r3, pc}
 260              		.cfi_endproc
 261              	.LFE70:
 262              		.size	sadRightEyebrow, .-sadRightEyebrow
 263              		.section	.text.clearRightEyebrow,"ax",%progbits
 264              		.align	2
 265              		.global	clearRightEyebrow
 266              		.thumb
 267              		.thumb_func
 268              		.type	clearRightEyebrow, %function
 269              	clearRightEyebrow:
 270              	.LFB71:
  60:main.c        **** }
  61:main.c        **** 
  62:main.c        **** void clearRightEyebrow() {
 271              		.loc 1 62 0
 272              		.cfi_startproc
 273              		@ args = 0, pretend = 0, frame = 0
 274              		@ frame_needed = 0, uses_anonymous_args = 0
 275 0000 08B5     		push	{r3, lr}
 276              		.cfi_def_cfa_offset 8
 277              		.cfi_offset 3, -8
 278              		.cfi_offset 14, -4
  63:main.c        ****     RightEyebrow_WriteCompare1(0);
 279              		.loc 1 63 0
ARM GAS  C:\Users\SANDEE~1\AppData\Local\Temp\ccxpgTaX.s 			page 7


 280 0002 0020     		movs	r0, #0
 281 0004 FFF7FEFF 		bl	RightEyebrow_WriteCompare1
 282              	.LVL23:
  64:main.c        ****     RightEyebrow_WriteCompare2(0);
 283              		.loc 1 64 0
 284 0008 0020     		movs	r0, #0
 285 000a FFF7FEFF 		bl	RightEyebrow_WriteCompare2
 286              	.LVL24:
 287 000e 08BD     		pop	{r3, pc}
 288              		.cfi_endproc
 289              	.LFE71:
 290              		.size	clearRightEyebrow, .-clearRightEyebrow
 291              		.section	.text.moveLowerJawUp,"ax",%progbits
 292              		.align	2
 293              		.global	moveLowerJawUp
 294              		.thumb
 295              		.thumb_func
 296              		.type	moveLowerJawUp, %function
 297              	moveLowerJawUp:
 298              	.LFB72:
  65:main.c        **** }
  66:main.c        **** 
  67:main.c        **** void moveLowerJawUp() {
 299              		.loc 1 67 0
 300              		.cfi_startproc
 301              		@ args = 0, pretend = 0, frame = 0
 302              		@ frame_needed = 0, uses_anonymous_args = 0
 303 0000 08B5     		push	{r3, lr}
 304              		.cfi_def_cfa_offset 8
 305              		.cfi_offset 3, -8
 306              		.cfi_offset 14, -4
  68:main.c        ****     BaseJaw_WriteCompare1(800);
 307              		.loc 1 68 0
 308 0002 4FF44870 		mov	r0, #800
 309 0006 FFF7FEFF 		bl	BaseJaw_WriteCompare1
 310              	.LVL25:
 311 000a 08BD     		pop	{r3, pc}
 312              		.cfi_endproc
 313              	.LFE72:
 314              		.size	moveLowerJawUp, .-moveLowerJawUp
 315              		.section	.text.moveNeckDown,"ax",%progbits
 316              		.align	2
 317              		.global	moveNeckDown
 318              		.thumb
 319              		.thumb_func
 320              		.type	moveNeckDown, %function
 321              	moveNeckDown:
 322              	.LFB73:
  69:main.c        **** }
  70:main.c        **** void moveNeckDown() {
 323              		.loc 1 70 0
 324              		.cfi_startproc
 325              		@ args = 0, pretend = 0, frame = 0
 326              		@ frame_needed = 0, uses_anonymous_args = 0
 327 0000 08B5     		push	{r3, lr}
 328              		.cfi_def_cfa_offset 8
 329              		.cfi_offset 3, -8
ARM GAS  C:\Users\SANDEE~1\AppData\Local\Temp\ccxpgTaX.s 			page 8


 330              		.cfi_offset 14, -4
  71:main.c        ****     Neck_WriteCompare1(1500);
 331              		.loc 1 71 0
 332 0002 40F2DC50 		movw	r0, #1500
 333 0006 FFF7FEFF 		bl	Neck_WriteCompare1
 334              	.LVL26:
  72:main.c        ****     Neck_WriteCompare2(500);
 335              		.loc 1 72 0
 336 000a 4FF4FA70 		mov	r0, #500
 337 000e FFF7FEFF 		bl	Neck_WriteCompare2
 338              	.LVL27:
  73:main.c        ****     //Close the jaw
  74:main.c        ****     moveLowerJawUp();
 339              		.loc 1 74 0
 340 0012 FFF7FEFF 		bl	moveLowerJawUp
 341              	.LVL28:
 342 0016 08BD     		pop	{r3, pc}
 343              		.cfi_endproc
 344              	.LFE73:
 345              		.size	moveNeckDown, .-moveNeckDown
 346              		.section	.text.moveNeckCenter,"ax",%progbits
 347              		.align	2
 348              		.global	moveNeckCenter
 349              		.thumb
 350              		.thumb_func
 351              		.type	moveNeckCenter, %function
 352              	moveNeckCenter:
 353              	.LFB74:
  75:main.c        **** }
  76:main.c        **** 
  77:main.c        **** void moveNeckCenter() {
 354              		.loc 1 77 0
 355              		.cfi_startproc
 356              		@ args = 0, pretend = 0, frame = 0
 357              		@ frame_needed = 0, uses_anonymous_args = 0
 358 0000 08B5     		push	{r3, lr}
 359              		.cfi_def_cfa_offset 8
 360              		.cfi_offset 3, -8
 361              		.cfi_offset 14, -4
  78:main.c        ****     Neck_WriteCompare1(1000);
 362              		.loc 1 78 0
 363 0002 4FF47A70 		mov	r0, #1000
 364 0006 FFF7FEFF 		bl	Neck_WriteCompare1
 365              	.LVL29:
  79:main.c        ****     Neck_WriteCompare2(1000);
 366              		.loc 1 79 0
 367 000a 4FF47A70 		mov	r0, #1000
 368 000e FFF7FEFF 		bl	Neck_WriteCompare2
 369              	.LVL30:
 370 0012 08BD     		pop	{r3, pc}
 371              		.cfi_endproc
 372              	.LFE74:
 373              		.size	moveNeckCenter, .-moveNeckCenter
 374              		.section	.text.moveNeckUp,"ax",%progbits
 375              		.align	2
 376              		.global	moveNeckUp
 377              		.thumb
ARM GAS  C:\Users\SANDEE~1\AppData\Local\Temp\ccxpgTaX.s 			page 9


 378              		.thumb_func
 379              		.type	moveNeckUp, %function
 380              	moveNeckUp:
 381              	.LFB75:
  80:main.c        **** }
  81:main.c        **** 
  82:main.c        **** void moveNeckUp() {
 382              		.loc 1 82 0
 383              		.cfi_startproc
 384              		@ args = 0, pretend = 0, frame = 0
 385              		@ frame_needed = 0, uses_anonymous_args = 0
 386 0000 08B5     		push	{r3, lr}
 387              		.cfi_def_cfa_offset 8
 388              		.cfi_offset 3, -8
 389              		.cfi_offset 14, -4
  83:main.c        ****     Neck_WriteCompare1(500);
 390              		.loc 1 83 0
 391 0002 4FF4FA70 		mov	r0, #500
 392 0006 FFF7FEFF 		bl	Neck_WriteCompare1
 393              	.LVL31:
  84:main.c        ****     Neck_WriteCompare2(1500);
 394              		.loc 1 84 0
 395 000a 40F2DC50 		movw	r0, #1500
 396 000e FFF7FEFF 		bl	Neck_WriteCompare2
 397              	.LVL32:
 398 0012 08BD     		pop	{r3, pc}
 399              		.cfi_endproc
 400              	.LFE75:
 401              		.size	moveNeckUp, .-moveNeckUp
 402              		.section	.text.resetJaw,"ax",%progbits
 403              		.align	2
 404              		.global	resetJaw
 405              		.thumb
 406              		.thumb_func
 407              		.type	resetJaw, %function
 408              	resetJaw:
 409              	.LFB76:
  85:main.c        **** }
  86:main.c        **** 
  87:main.c        **** void resetJaw() {
 410              		.loc 1 87 0
 411              		.cfi_startproc
 412              		@ args = 0, pretend = 0, frame = 0
 413              		@ frame_needed = 0, uses_anonymous_args = 0
 414 0000 08B5     		push	{r3, lr}
 415              		.cfi_def_cfa_offset 8
 416              		.cfi_offset 3, -8
 417              		.cfi_offset 14, -4
  88:main.c        ****     BaseJaw_WriteCompare1(200);
 418              		.loc 1 88 0
 419 0002 C820     		movs	r0, #200
 420 0004 FFF7FEFF 		bl	BaseJaw_WriteCompare1
 421              	.LVL33:
 422 0008 08BD     		pop	{r3, pc}
 423              		.cfi_endproc
 424              	.LFE76:
 425              		.size	resetJaw, .-resetJaw
ARM GAS  C:\Users\SANDEE~1\AppData\Local\Temp\ccxpgTaX.s 			page 10


 426 000a 00BF     		.section	.text.moveBaseCenter,"ax",%progbits
 427              		.align	2
 428              		.global	moveBaseCenter
 429              		.thumb
 430              		.thumb_func
 431              		.type	moveBaseCenter, %function
 432              	moveBaseCenter:
 433              	.LFB77:
  89:main.c        **** }
  90:main.c        **** 
  91:main.c        **** void moveBaseCenter() {
 434              		.loc 1 91 0
 435              		.cfi_startproc
 436              		@ args = 0, pretend = 0, frame = 0
 437              		@ frame_needed = 0, uses_anonymous_args = 0
 438 0000 08B5     		push	{r3, lr}
 439              		.cfi_def_cfa_offset 8
 440              		.cfi_offset 3, -8
 441              		.cfi_offset 14, -4
  92:main.c        ****     BaseJaw_Start();
 442              		.loc 1 92 0
 443 0002 FFF7FEFF 		bl	BaseJaw_Start
 444              	.LVL34:
  93:main.c        ****     BaseJaw_WriteCompare2(1500);
 445              		.loc 1 93 0
 446 0006 40F2DC50 		movw	r0, #1500
 447 000a FFF7FEFF 		bl	BaseJaw_WriteCompare2
 448              	.LVL35:
  94:main.c        ****     CyDelay(2000);
 449              		.loc 1 94 0
 450 000e 4FF4FA60 		mov	r0, #2000
 451 0012 FFF7FEFF 		bl	CyDelay
 452              	.LVL36:
  95:main.c        ****     BaseJaw_Stop();
 453              		.loc 1 95 0
 454 0016 FFF7FEFF 		bl	BaseJaw_Stop
 455              	.LVL37:
 456 001a 08BD     		pop	{r3, pc}
 457              		.cfi_endproc
 458              	.LFE77:
 459              		.size	moveBaseCenter, .-moveBaseCenter
 460              		.section	.text.moveBaseRight,"ax",%progbits
 461              		.align	2
 462              		.global	moveBaseRight
 463              		.thumb
 464              		.thumb_func
 465              		.type	moveBaseRight, %function
 466              	moveBaseRight:
 467              	.LFB78:
  96:main.c        **** }
  97:main.c        **** 
  98:main.c        **** void moveBaseRight() {
 468              		.loc 1 98 0
 469              		.cfi_startproc
 470              		@ args = 0, pretend = 0, frame = 0
 471              		@ frame_needed = 0, uses_anonymous_args = 0
 472 0000 08B5     		push	{r3, lr}
ARM GAS  C:\Users\SANDEE~1\AppData\Local\Temp\ccxpgTaX.s 			page 11


 473              		.cfi_def_cfa_offset 8
 474              		.cfi_offset 3, -8
 475              		.cfi_offset 14, -4
  99:main.c        ****     BaseJaw_WriteCompare2(500);
 476              		.loc 1 99 0
 477 0002 4FF4FA70 		mov	r0, #500
 478 0006 FFF7FEFF 		bl	BaseJaw_WriteCompare2
 479              	.LVL38:
 480 000a 08BD     		pop	{r3, pc}
 481              		.cfi_endproc
 482              	.LFE78:
 483              		.size	moveBaseRight, .-moveBaseRight
 484              		.section	.text.moveBaseLeft,"ax",%progbits
 485              		.align	2
 486              		.global	moveBaseLeft
 487              		.thumb
 488              		.thumb_func
 489              		.type	moveBaseLeft, %function
 490              	moveBaseLeft:
 491              	.LFB79:
 100:main.c        **** }
 101:main.c        **** 
 102:main.c        **** void moveBaseLeft() {
 492              		.loc 1 102 0
 493              		.cfi_startproc
 494              		@ args = 0, pretend = 0, frame = 0
 495              		@ frame_needed = 0, uses_anonymous_args = 0
 496 0000 08B5     		push	{r3, lr}
 497              		.cfi_def_cfa_offset 8
 498              		.cfi_offset 3, -8
 499              		.cfi_offset 14, -4
 103:main.c        ****     BaseJaw_WriteCompare2(2500);
 500              		.loc 1 103 0
 501 0002 40F6C410 		movw	r0, #2500
 502 0006 FFF7FEFF 		bl	BaseJaw_WriteCompare2
 503              	.LVL39:
 504 000a 08BD     		pop	{r3, pc}
 505              		.cfi_endproc
 506              	.LFE79:
 507              		.size	moveBaseLeft, .-moveBaseLeft
 508              		.section	.text.moveLowerJawDown,"ax",%progbits
 509              		.align	2
 510              		.global	moveLowerJawDown
 511              		.thumb
 512              		.thumb_func
 513              		.type	moveLowerJawDown, %function
 514              	moveLowerJawDown:
 515              	.LFB80:
 104:main.c        **** }
 105:main.c        **** void moveLowerJawDown() {
 516              		.loc 1 105 0
 517              		.cfi_startproc
 518              		@ args = 0, pretend = 0, frame = 0
 519              		@ frame_needed = 0, uses_anonymous_args = 0
 520 0000 08B5     		push	{r3, lr}
 521              		.cfi_def_cfa_offset 8
 522              		.cfi_offset 3, -8
ARM GAS  C:\Users\SANDEE~1\AppData\Local\Temp\ccxpgTaX.s 			page 12


 523              		.cfi_offset 14, -4
 106:main.c        ****     BaseJaw_WriteCompare1(600);
 524              		.loc 1 106 0
 525 0002 4FF41670 		mov	r0, #600
 526 0006 FFF7FEFF 		bl	BaseJaw_WriteCompare1
 527              	.LVL40:
 528 000a 08BD     		pop	{r3, pc}
 529              		.cfi_endproc
 530              	.LFE80:
 531              		.size	moveLowerJawDown, .-moveLowerJawDown
 532              		.section	.text.moveHeadRight,"ax",%progbits
 533              		.align	2
 534              		.global	moveHeadRight
 535              		.thumb
 536              		.thumb_func
 537              		.type	moveHeadRight, %function
 538              	moveHeadRight:
 539              	.LFB81:
 107:main.c        **** }
 108:main.c        **** 
 109:main.c        **** void moveHeadRight() {
 540              		.loc 1 109 0
 541              		.cfi_startproc
 542              		@ args = 0, pretend = 0, frame = 0
 543              		@ frame_needed = 0, uses_anonymous_args = 0
 544 0000 08B5     		push	{r3, lr}
 545              		.cfi_def_cfa_offset 8
 546              		.cfi_offset 3, -8
 547              		.cfi_offset 14, -4
 110:main.c        ****     Neck_WriteCompare1(1500);
 548              		.loc 1 110 0
 549 0002 40F2DC50 		movw	r0, #1500
 550 0006 FFF7FEFF 		bl	Neck_WriteCompare1
 551              	.LVL41:
 111:main.c        ****     Neck_WriteCompare2(1500);
 552              		.loc 1 111 0
 553 000a 40F2DC50 		movw	r0, #1500
 554 000e FFF7FEFF 		bl	Neck_WriteCompare2
 555              	.LVL42:
 556 0012 08BD     		pop	{r3, pc}
 557              		.cfi_endproc
 558              	.LFE81:
 559              		.size	moveHeadRight, .-moveHeadRight
 560              		.section	.text.moveHeadLeft,"ax",%progbits
 561              		.align	2
 562              		.global	moveHeadLeft
 563              		.thumb
 564              		.thumb_func
 565              		.type	moveHeadLeft, %function
 566              	moveHeadLeft:
 567              	.LFB82:
 112:main.c        **** }
 113:main.c        **** 
 114:main.c        **** void moveHeadLeft() {
 568              		.loc 1 114 0
 569              		.cfi_startproc
 570              		@ args = 0, pretend = 0, frame = 0
ARM GAS  C:\Users\SANDEE~1\AppData\Local\Temp\ccxpgTaX.s 			page 13


 571              		@ frame_needed = 0, uses_anonymous_args = 0
 572 0000 08B5     		push	{r3, lr}
 573              		.cfi_def_cfa_offset 8
 574              		.cfi_offset 3, -8
 575              		.cfi_offset 14, -4
 115:main.c        ****     Neck_WriteCompare1(500);
 576              		.loc 1 115 0
 577 0002 4FF4FA70 		mov	r0, #500
 578 0006 FFF7FEFF 		bl	Neck_WriteCompare1
 579              	.LVL43:
 116:main.c        ****     Neck_WriteCompare2(500);
 580              		.loc 1 116 0
 581 000a 4FF4FA70 		mov	r0, #500
 582 000e FFF7FEFF 		bl	Neck_WriteCompare2
 583              	.LVL44:
 584 0012 08BD     		pop	{r3, pc}
 585              		.cfi_endproc
 586              	.LFE82:
 587              		.size	moveHeadLeft, .-moveHeadLeft
 588              		.section	.text.resetAllServoPositions,"ax",%progbits
 589              		.align	2
 590              		.global	resetAllServoPositions
 591              		.thumb
 592              		.thumb_func
 593              		.type	resetAllServoPositions, %function
 594              	resetAllServoPositions:
 595              	.LFB83:
 117:main.c        **** }
 118:main.c        **** 
 119:main.c        **** void resetAllServoPositions() {
 596              		.loc 1 119 0
 597              		.cfi_startproc
 598              		@ args = 0, pretend = 0, frame = 0
 599              		@ frame_needed = 0, uses_anonymous_args = 0
 600 0000 08B5     		push	{r3, lr}
 601              		.cfi_def_cfa_offset 8
 602              		.cfi_offset 3, -8
 603              		.cfi_offset 14, -4
 120:main.c        ****     raisedLeftEyebrow();
 604              		.loc 1 120 0
 605 0002 FFF7FEFF 		bl	raisedLeftEyebrow
 606              	.LVL45:
 121:main.c        ****     raisedRightEyebrow();
 607              		.loc 1 121 0
 608 0006 FFF7FEFF 		bl	raisedRightEyebrow
 609              	.LVL46:
 122:main.c        ****     
 123:main.c        ****     moveBaseCenter();
 610              		.loc 1 123 0
 611 000a FFF7FEFF 		bl	moveBaseCenter
 612              	.LVL47:
 124:main.c        ****     
 125:main.c        ****     moveNeckDown();
 613              		.loc 1 125 0
 614 000e FFF7FEFF 		bl	moveNeckDown
 615              	.LVL48:
 126:main.c        ****     
ARM GAS  C:\Users\SANDEE~1\AppData\Local\Temp\ccxpgTaX.s 			page 14


 127:main.c        ****     EyeBallVertical_WriteCompare1(200);
 616              		.loc 1 127 0
 617 0012 C820     		movs	r0, #200
 618 0014 FFF7FEFF 		bl	EyeBallVertical_WriteCompare1
 619              	.LVL49:
 128:main.c        ****     EyelidGroup_WriteCompare1(200);
 620              		.loc 1 128 0
 621 0018 C820     		movs	r0, #200
 622 001a FFF7FEFF 		bl	EyelidGroup_WriteCompare1
 623              	.LVL50:
 129:main.c        ****     LeftEyebrow_WriteCompare1(200);
 624              		.loc 1 129 0
 625 001e C820     		movs	r0, #200
 626 0020 FFF7FEFF 		bl	LeftEyebrow_WriteCompare1
 627              	.LVL51:
 130:main.c        ****     EyeBallHorizontal_WriteCompare1(200);
 628              		.loc 1 130 0
 629 0024 C820     		movs	r0, #200
 630 0026 FFF7FEFF 		bl	EyeBallHorizontal_WriteCompare1
 631              	.LVL52:
 131:main.c        ****     Lip_WriteCompare1(200);
 632              		.loc 1 131 0
 633 002a C820     		movs	r0, #200
 634 002c FFF7FEFF 		bl	Lip_WriteCompare1
 635              	.LVL53:
 132:main.c        ****     
 133:main.c        ****     EyeBallVertical_WriteCompare2(200);
 636              		.loc 1 133 0
 637 0030 C820     		movs	r0, #200
 638 0032 FFF7FEFF 		bl	EyeBallVertical_WriteCompare2
 639              	.LVL54:
 134:main.c        ****     EyelidGroup_WriteCompare2(200);
 640              		.loc 1 134 0
 641 0036 C820     		movs	r0, #200
 642 0038 FFF7FEFF 		bl	EyelidGroup_WriteCompare2
 643              	.LVL55:
 135:main.c        ****     LeftEyebrow_WriteCompare2(200);
 644              		.loc 1 135 0
 645 003c C820     		movs	r0, #200
 646 003e FFF7FEFF 		bl	LeftEyebrow_WriteCompare2
 647              	.LVL56:
 136:main.c        ****     EyeBallHorizontal_WriteCompare2(200);
 648              		.loc 1 136 0
 649 0042 C820     		movs	r0, #200
 650 0044 FFF7FEFF 		bl	EyeBallHorizontal_WriteCompare2
 651              	.LVL57:
 137:main.c        ****     Lip_WriteCompare2(200);
 652              		.loc 1 137 0
 653 0048 C820     		movs	r0, #200
 654 004a FFF7FEFF 		bl	Lip_WriteCompare2
 655              	.LVL58:
 656 004e 08BD     		pop	{r3, pc}
 657              		.cfi_endproc
 658              	.LFE83:
 659              		.size	resetAllServoPositions, .-resetAllServoPositions
 660              		.section	.text.stopAllComponents,"ax",%progbits
 661              		.align	2
ARM GAS  C:\Users\SANDEE~1\AppData\Local\Temp\ccxpgTaX.s 			page 15


 662              		.global	stopAllComponents
 663              		.thumb
 664              		.thumb_func
 665              		.type	stopAllComponents, %function
 666              	stopAllComponents:
 667              	.LFB84:
 138:main.c        **** }
 139:main.c        **** 
 140:main.c        **** void stopAllComponents() {
 668              		.loc 1 140 0
 669              		.cfi_startproc
 670              		@ args = 0, pretend = 0, frame = 0
 671              		@ frame_needed = 0, uses_anonymous_args = 0
 672 0000 08B5     		push	{r3, lr}
 673              		.cfi_def_cfa_offset 8
 674              		.cfi_offset 3, -8
 675              		.cfi_offset 14, -4
 141:main.c        ****     RightEyebrow_Stop();
 676              		.loc 1 141 0
 677 0002 FFF7FEFF 		bl	RightEyebrow_Stop
 678              	.LVL59:
 142:main.c        ****     LeftEyebrow_Stop();
 679              		.loc 1 142 0
 680 0006 FFF7FEFF 		bl	LeftEyebrow_Stop
 681              	.LVL60:
 143:main.c        ****     EyeBallVertical_Stop();
 682              		.loc 1 143 0
 683 000a FFF7FEFF 		bl	EyeBallVertical_Stop
 684              	.LVL61:
 144:main.c        ****     EyelidGroup_Stop();
 685              		.loc 1 144 0
 686 000e FFF7FEFF 		bl	EyelidGroup_Stop
 687              	.LVL62:
 145:main.c        ****     BaseJaw_Stop();
 688              		.loc 1 145 0
 689 0012 FFF7FEFF 		bl	BaseJaw_Stop
 690              	.LVL63:
 146:main.c        ****     LeftEyebrow_Stop();
 691              		.loc 1 146 0
 692 0016 FFF7FEFF 		bl	LeftEyebrow_Stop
 693              	.LVL64:
 147:main.c        ****     EyeBallHorizontal_Stop();
 694              		.loc 1 147 0
 695 001a FFF7FEFF 		bl	EyeBallHorizontal_Stop
 696              	.LVL65:
 148:main.c        ****     Neck_Stop();
 697              		.loc 1 148 0
 698 001e FFF7FEFF 		bl	Neck_Stop
 699              	.LVL66:
 149:main.c        ****     Lip_Stop();
 700              		.loc 1 149 0
 701 0022 FFF7FEFF 		bl	Lip_Stop
 702              	.LVL67:
 703 0026 08BD     		pop	{r3, pc}
 704              		.cfi_endproc
 705              	.LFE84:
 706              		.size	stopAllComponents, .-stopAllComponents
ARM GAS  C:\Users\SANDEE~1\AppData\Local\Temp\ccxpgTaX.s 			page 16


 707              		.section	.text.main,"ax",%progbits
 708              		.align	2
 709              		.global	main
 710              		.thumb
 711              		.thumb_func
 712              		.type	main, %function
 713              	main:
 714              	.LFB85:
 150:main.c        **** }
 151:main.c        **** 
 152:main.c        **** int main(void)
 153:main.c        **** {
 715              		.loc 1 153 0
 716              		.cfi_startproc
 717              		@ Volatile: function does not return.
 718              		@ args = 0, pretend = 0, frame = 0
 719              		@ frame_needed = 0, uses_anonymous_args = 0
 720 0000 08B5     		push	{r3, lr}
 721              		.cfi_def_cfa_offset 8
 722              		.cfi_offset 3, -8
 723              		.cfi_offset 14, -4
 154:main.c        ****     CyGlobalIntEnable; /* Enable global interrupts. */
 724              		.loc 1 154 0
 725              		.syntax unified
 726              	@ 154 "main.c" 1
 727 0002 62B6     		CPSIE   i
 728              	@ 0 "" 2
 155:main.c        **** 
 156:main.c        ****     // Initialize the Components
 157:main.c        ****     initializeAllComponenets();
 729              		.loc 1 157 0
 730              		.thumb
 731              		.syntax unified
 732 0004 FFF7FEFF 		bl	initializeAllComponenets
 733              	.LVL68:
 158:main.c        ****     
 159:main.c        ****     //resetAllServoPositions();
 160:main.c        ****     moveNeckCenter();
 734              		.loc 1 160 0
 735 0008 FFF7FEFF 		bl	moveNeckCenter
 736              	.LVL69:
 737              	.L46:
 161:main.c        ****     
 162:main.c        ****     // Actions
 163:main.c        ****     while(1) {
 164:main.c        ****         sadLeftEyebrow();
 738              		.loc 1 164 0 discriminator 1
 739 000c FFF7FEFF 		bl	sadLeftEyebrow
 740              	.LVL70:
 165:main.c        ****         sadRightEyebrow();
 741              		.loc 1 165 0 discriminator 1
 742 0010 FFF7FEFF 		bl	sadRightEyebrow
 743              	.LVL71:
 166:main.c        ****         CyDelay(3000);
 744              		.loc 1 166 0 discriminator 1
 745 0014 40F6B830 		movw	r0, #3000
 746 0018 FFF7FEFF 		bl	CyDelay
ARM GAS  C:\Users\SANDEE~1\AppData\Local\Temp\ccxpgTaX.s 			page 17


 747              	.LVL72:
 167:main.c        ****         raisedLeftEyebrow();
 748              		.loc 1 167 0 discriminator 1
 749 001c FFF7FEFF 		bl	raisedLeftEyebrow
 750              	.LVL73:
 168:main.c        ****         raisedRightEyebrow();
 751              		.loc 1 168 0 discriminator 1
 752 0020 FFF7FEFF 		bl	raisedRightEyebrow
 753              	.LVL74:
 169:main.c        ****         CyDelay(3000);
 754              		.loc 1 169 0 discriminator 1
 755 0024 40F6B830 		movw	r0, #3000
 756 0028 FFF7FEFF 		bl	CyDelay
 757              	.LVL75:
 170:main.c        ****         /*moveNeckDown();
 171:main.c        ****         CyDelay(5000);
 172:main.c        ****         moveNeckUp();
 173:main.c        ****         CyDelay(5000);
 174:main.c        ****         moveNeckCenter();
 175:main.c        ****         CyDelay(5000);*/
 176:main.c        ****         moveLowerJawDown();
 758              		.loc 1 176 0 discriminator 1
 759 002c FFF7FEFF 		bl	moveLowerJawDown
 760              	.LVL76:
 177:main.c        ****         CyDelay(6000);
 761              		.loc 1 177 0 discriminator 1
 762 0030 41F27070 		movw	r0, #6000
 763 0034 FFF7FEFF 		bl	CyDelay
 764              	.LVL77:
 178:main.c        ****         moveLowerJawUp();
 765              		.loc 1 178 0 discriminator 1
 766 0038 FFF7FEFF 		bl	moveLowerJawUp
 767              	.LVL78:
 179:main.c        ****         CyDelay(6000);
 768              		.loc 1 179 0 discriminator 1
 769 003c 41F27070 		movw	r0, #6000
 770 0040 FFF7FEFF 		bl	CyDelay
 771              	.LVL79:
 772 0044 E2E7     		b	.L46
 773              		.cfi_endproc
 774              	.LFE85:
 775              		.size	main, .-main
 776 0046 00BF     		.text
 777              	.Letext0:
 778              		.file 2 "c:\\program files (x86)\\cypress\\psoc creator\\4.2\\psoc creator\\import\\gnu\\arm\\5.4.
 779              		.file 3 "c:\\program files (x86)\\cypress\\psoc creator\\4.2\\psoc creator\\import\\gnu\\arm\\5.4.
 780              		.file 4 "Generated_Source\\PSoC5/RightEyebrow.h"
 781              		.file 5 "Generated_Source\\PSoC5/LeftEyebrow.h"
 782              		.file 6 "Generated_Source\\PSoC5/EyeBallVertical.h"
 783              		.file 7 "Generated_Source\\PSoC5/EyelidGroup.h"
 784              		.file 8 "Generated_Source\\PSoC5/BaseJaw.h"
 785              		.file 9 "Generated_Source\\PSoC5/EyeBallHorizontal.h"
 786              		.file 10 "Generated_Source\\PSoC5/Neck.h"
 787              		.file 11 "Generated_Source\\PSoC5/Lip.h"
 788              		.file 12 "Generated_Source\\PSoC5/CyLib.h"
 789              		.file 13 "Generated_Source\\PSoC5/core_cm3.h"